; Function Attrs: mustprogress nounwind uwtable
define internal void @"_ZNSt17_Function_handlerIFvvEZN4llvm13DWARFVerifier19verifyAbbrevSectionEPKNS1_16DWARFDebugAbbrevEE3$_0E9_M_invokeERKSt9_Any_data"(ptr nocapture noundef nonnull readonly align 8 dereferenceable(16) %0) #0 align 2 {
  %2 = load ptr, ptr %0, align 8
  %3 = load ptr, ptr %2, align 8
  %4 = tail call noundef nonnull align 8 dereferenceable(48) ptr @_ZN4llvm9WithColor5errorERNS_11raw_ostreamENS_9StringRefEb(ptr noundef nonnull align 8 dereferenceable(48) %3, ptr nonnull @.str.145, i64 0, i1 noundef zeroext false) #26
  %5 = getelementptr inbounds nuw i8, ptr %0, i64 8
  %6 = load ptr, ptr %5, align 8
  %7 = tail call noundef ptr @_ZNKSt7__cxx1112basic_stringIcSt11char_traitsIcESaIcEE4dataEv(ptr noundef nonnull align 8 dereferenceable(32) %6) #26
  %8 = tail call noundef i64 @_ZNKSt7__cxx1112basic_stringIcSt11char_traitsIcESaIcEE6lengthEv(ptr noundef nonnull align 8 dereferenceable(32) %6) #26
  %9 = tail call noundef nonnull align 8 dereferenceable(48) ptr @_ZN4llvm11raw_ostream5writeEPKcm(ptr noundef nonnull align 8 dereferenceable(48) %4, ptr noundef %7, i64 noundef %8) #26
  %10 = getelementptr inbounds nuw i8, ptr %9, i64 24
  %11 = load ptr, ptr %10, align 8
  %12 = getelementptr inbounds nuw i8, ptr %9, i64 32
  %13 = load ptr, ptr %12, align 8
  %14 = icmp eq ptr %11, %13
  br i1 %14, label %15, label %17

15:                                               ; preds = %1
  %16 = tail call noundef nonnull align 8 dereferenceable(48) ptr @_ZN4llvm11raw_ostream5writeEPKcm(ptr noundef nonnull align 8 dereferenceable(48) %9, ptr noundef nonnull @.str.181, i64 noundef 1) #26
  br label %"_ZSt10__invoke_rIvRZN4llvm13DWARFVerifier19verifyAbbrevSectionEPKNS0_16DWARFDebugAbbrevEE3$_0JEENSt9enable_ifIX16is_invocable_r_vIT_T0_DpT1_EES8_E4typeEOS9_DpOSA_.exit"

17:                                               ; preds = %1
  store i8 10, ptr %13, align 1
  %18 = load ptr, ptr %12, align 8
  %19 = getelementptr inbounds i8, ptr %18, i64 1
  store ptr %19, ptr %12, align 8
  br label %"_ZSt10__invoke_rIvRZN4llvm13DWARFVerifier19verifyAbbrevSectionEPKNS0_16DWARFDebugAbbrevEE3$_0JEENSt9enable_ifIX16is_invocable_r_vIT_T0_DpT1_EES8_E4typeEOS9_DpOSA_.exit"

"_ZSt10__invoke_rIvRZN4llvm13DWARFVerifier19verifyAbbrevSectionEPKNS0_16DWARFDebugAbbrevEE3$_0JEENSt9enable_ifIX16is_invocable_r_vIT_T0_DpT1_EES8_E4typeEOS9_DpOSA_.exit": ; preds = %15, %17
  ret void
}